; Function Attrs: nounwind uwtable
define noalias nonnull ptr @l_Lake_BuildJob_pure___rarg(ptr noundef %0, ptr noundef %1) #0 {
  %3 = load ptr, ptr @l_Lake_Job_async___rarg___closed__2, align 8, !tbaa !4
  tail call void @lean_inc_heartbeat() #4
  %4 = tail call noalias ptr @mi_malloc_small(i64 noundef 24) #4
  %5 = icmp eq ptr %4, null
  br i1 %5, label %6, label %lean_alloc_ctor.exit

6:                                                ; preds = %2
  tail call void @lean_internal_panic_out_of_memory() #5
  unreachable

lean_alloc_ctor.exit:                             ; preds = %2
  %7 = getelementptr inbounds nuw i8, ptr %4, i64 4
  store i32 1, ptr %4, align 4, !tbaa !8
  store i32 131096, ptr %7, align 4
  %8 = getelementptr inbounds nuw i8, ptr %4, i64 8
  store ptr %1, ptr %8, align 8, !tbaa !4
  %9 = getelementptr inbounds nuw i8, ptr %4, i64 16
  store ptr %3, ptr %9, align 8, !tbaa !4
  %10 = tail call ptr @lean_task_pure(ptr noundef nonnull %4) #4
  %11 = load ptr, ptr @l_Lake_Job_async___rarg___lambda__2___closed__2, align 8, !tbaa !4
  tail call void @lean_inc_heartbeat() #4
  %12 = tail call noalias ptr @mi_malloc_small(i64 noundef 40) #4
  %13 = icmp eq ptr %12, null
  br i1 %13, label %14, label %lean_alloc_ctor.exit13

14:                                               ; preds = %lean_alloc_ctor.exit
  tail call void @lean_internal_panic_out_of_memory() #5
  unreachable

lean_alloc_ctor.exit13:                           ; preds = %lean_alloc_ctor.exit
  %15 = getelementptr inbounds nuw i8, ptr %12, i64 4
  %16 = getelementptr inbounds nuw i8, ptr %12, i64 32
  store i64 0, ptr %16, align 8, !tbaa !12
  store i32 1, ptr %12, align 4, !tbaa !8
  store i32 196648, ptr %15, align 4
  %17 = getelementptr inbounds nuw i8, ptr %12, i64 8
  store ptr %10, ptr %17, align 8, !tbaa !4
  %18 = getelementptr inbounds nuw i8, ptr %12, i64 16
  store ptr %0, ptr %18, align 8, !tbaa !4
  %19 = getelementptr inbounds nuw i8, ptr %12, i64 24
  store ptr %11, ptr %19, align 8, !tbaa !4
  ret ptr %12
}